(lp1
S'CS'
p2
aS'MIS'
p3
aS'EE'
p4
aS'BME'
p5
aS'ME'
p6
aS'IEOR'
p7
aS'Stat/Biostat'
p8
aS'BioInfo'
p9
aS'MFE/Fin/FinMath'
p10
aS'Econ/Biz'
p11
aS'Math/AppliedMath'
p12
aS'Physics'
p13
aS'Accounting'
p14
aS'Chem/CEng'
p15
aS'Material'
p16
aS'LiberalArts'
p17
aS'CivilEng'
p18
aS'Envir'
p19
aS'Bio'
p20
aS'Earth'
p21
aS'Edu'
p22
aS'Other'
p23
aS'CIS'
p24
aS'CE'
p25
a.